target datalayout = "e-m:e-p270:32:32-p271:32:32-p272:64:64-i64:64-i128:128-f80:128-n8:16:32:64-S128"
target triple = "x86_64-pc-linux-gnu"

%struct.ident_t = type { i32, i32, i32, i32, ptr }
%"class.gmx::ArrayRef" = type { %"struct.gmx::ArrayRefIter", %"struct.gmx::ArrayRefIter" }
%"struct.gmx::ArrayRefIter" = type { ptr }
%"class.gmx::BasicVector" = type { [3 x float] }

@1 = private unnamed_addr constant %struct.ident_t { i32 0, i32 514, i32 0, i32 22, ptr @0 }, align 8

; Function Attrs: mustprogress nounwind uwtable
define linkonce_odr noundef nonnull align 4 dereferenceable(12) ptr @_ZNK3gmx12ArrayRefIterINS_11BasicVectorIfEEEdeEv(ptr noundef nonnull align 8 dereferenceable(8) %0) #3 comdat align 2 {
  %2 = alloca ptr, align 8
  store ptr %0, ptr %2, align 8
  %3 = load ptr, ptr %2, align 8
  %4 = getelementptr inbounds %"struct.gmx::ArrayRefIter", ptr %3, i32 0, i32 0
  %5 = load ptr, ptr %4, align 8
  ret ptr %5
}

; Function Attrs: mustprogress nounwind uwtable
define linkonce_odr noundef nonnull align 8 dereferenceable(8) ptr @_ZN3gmx12ArrayRefIterINS_11BasicVectorIfEEEpLEl(ptr noundef nonnull align 8 dereferenceable(8) %0, i64 noundef %1) #3 comdat align 2 {
  %3 = alloca ptr, align 8
  %4 = alloca i64, align 8
  store ptr %0, ptr %3, align 8
  store i64 %1, ptr %4, align 8
  %5 = load ptr, ptr %3, align 8
  %6 = load i64, ptr %4, align 8
  %7 = getelementptr inbounds %"struct.gmx::ArrayRefIter", ptr %5, i32 0, i32 0
  %8 = load ptr, ptr %7, align 8
  %9 = getelementptr inbounds %"class.gmx::BasicVector", ptr %8, i64 %6
  store ptr %9, ptr %7, align 8
  ret ptr %5
}

; Function Attrs: mustprogress nounwind uwtable
define linkonce_odr noundef nonnull align 8 dereferenceable(8) ptr @_ZNK3gmx5boost14stl_interfaces2v118iterator_interfaceINS_12ArrayRefIterINS_11BasicVectorIfEEEESt26random_access_iterator_tagS6_RS6_PS6_lvE7derivedEv(ptr noundef nonnull align 1 dereferenceable(1) %0) #3 comdat align 2 {
  %2 = alloca ptr, align 8
  store ptr %0, ptr %2, align 8
  %3 = load ptr, ptr %2, align 8
  ret ptr %3
}

; Function Attrs: mustprogress nounwind uwtable
define linkonce_odr void @_ZN3gmx11BasicVectorIfEC2Efff(ptr noundef nonnull align 4 dereferenceable(12) %0, float noundef %1, float noundef %2, float noundef %3) unnamed_addr #3 comdat align 2 {
  %5 = alloca ptr, align 8
  %6 = alloca float, align 4
  %7 = alloca float, align 4
  %8 = alloca float, align 4
  store ptr %0, ptr %5, align 8
  store float %1, ptr %6, align 4
  store float %2, ptr %7, align 4
  store float %3, ptr %8, align 4
  %9 = load ptr, ptr %5, align 8
  %10 = getelementptr inbounds %"class.gmx::BasicVector", ptr %9, i32 0, i32 0
  %11 = getelementptr inbounds [3 x float], ptr %10, i64 0, i64 0
  %12 = load float, ptr %6, align 4
  store float %12, ptr %11, align 4
  %13 = getelementptr inbounds float, ptr %11, i64 1
  %14 = load float, ptr %7, align 4
  store float %14, ptr %13, align 4
  %15 = getelementptr inbounds float, ptr %13, i64 1
  %16 = load float, ptr %8, align 4
  store float %16, ptr %15, align 4
  ret void
}

; Function Attrs: mustprogress nounwind uwtable
define linkonce_odr noundef float @_ZNK3gmx11BasicVectorIfEixEi(ptr noundef nonnull align 4 dereferenceable(12) %0, i32 noundef %1) #3 comdat align 2 {
  %3 = alloca ptr, align 8
  %4 = alloca i32, align 4
  store ptr %0, ptr %3, align 8
  store i32 %1, ptr %4, align 4
  %5 = load ptr, ptr %3, align 8
  %6 = getelementptr inbounds %"class.gmx::BasicVector", ptr %5, i32 0, i32 0
  %7 = load i32, ptr %4, align 4
  %8 = sext i32 %7 to i64
  %9 = getelementptr inbounds [3 x float], ptr %6, i64 0, i64 %8
  %10 = load float, ptr %9, align 4
  ret float %10
}

; Function Attrs: mustprogress nounwind uwtable
define linkonce_odr noundef nonnull align 4 dereferenceable(12) ptr @_ZNK3gmx5boost14stl_interfaces2v118iterator_interfaceINS_12ArrayRefIterINS_11BasicVectorIfEEEESt26random_access_iterator_tagS6_RS6_PS6_lvEixIS7_EEDTcmpLclsr3stdE7declvalIRT_EEfp_declsr3stdE7declvalISE_EEEl(ptr noundef nonnull align 1 dereferenceable(1) %0, i64 noundef %1) #3 comdat align 2 {
  %3 = alloca ptr, align 8
  %4 = alloca i64, align 8
  %5 = alloca %"struct.gmx::ArrayRefIter", align 8
  store ptr %0, ptr %3, align 8
  store i64 %1, ptr %4, align 8
  %6 = load ptr, ptr %3, align 8
  %7 = call noundef nonnull align 8 dereferenceable(8) ptr @_ZNK3gmx5boost14stl_interfaces2v118iterator_interfaceINS_12ArrayRefIterINS_11BasicVectorIfEEEESt26random_access_iterator_tagS6_RS6_PS6_lvE7derivedEv(ptr noundef nonnull align 1 dereferenceable(1) %6) #4
  call void @llvm.memcpy.p0.p0.i64(ptr align 8 %5, ptr align 8 %7, i64 8, i1 false)
  %8 = load i64, ptr %4, align 8
  %9 = call noundef nonnull align 8 dereferenceable(8) ptr @_ZN3gmx12ArrayRefIterINS_11BasicVectorIfEEEpLEl(ptr noundef nonnull align 8 dereferenceable(8) %5, i64 noundef %8) #4
  %10 = call noundef nonnull align 4 dereferenceable(12) ptr @_ZNK3gmx12ArrayRefIterINS_11BasicVectorIfEEEdeEv(ptr noundef nonnull align 8 dereferenceable(8) %5) #4
  ret ptr %10
}

; Function Attrs: noreturn nounwind uwtable
define linkonce_odr hidden void @__clang_call_terminate(ptr noundef %0) #7 comdat {
  %2 = call ptr @__cxa_begin_catch(ptr %0) #4
  call void @_ZSt9terminatev() #19
  unreachable
}

; Function Attrs: mustprogress uwtable
define linkonce_odr { <2 x float>, float } @_ZNK3gmx11BasicVectorIfEplERKS1_(ptr noundef nonnull align 4 dereferenceable(12) %0, ptr noundef nonnull align 4 dereferenceable(12) %1) #2 comdat align 2 {
  %3 = alloca %"class.gmx::BasicVector", align 4
  %4 = alloca ptr, align 8
  %5 = alloca ptr, align 8
  %6 = alloca { <2 x float>, float }, align 8
  store ptr %0, ptr %4, align 8
  store ptr %1, ptr %5, align 8
  %7 = load ptr, ptr %4, align 8
  %8 = getelementptr inbounds %"class.gmx::BasicVector", ptr %7, i32 0, i32 0
  %9 = getelementptr inbounds [3 x float], ptr %8, i64 0, i64 0
  %10 = load float, ptr %9, align 4
  %11 = load ptr, ptr %5, align 8
  %12 = call noundef float @_ZNK3gmx11BasicVectorIfEixEi(ptr noundef nonnull align 4 dereferenceable(12) %11, i32 noundef 0)
  %13 = fadd float %10, %12
  %14 = getelementptr inbounds %"class.gmx::BasicVector", ptr %7, i32 0, i32 0
  %15 = getelementptr inbounds [3 x float], ptr %14, i64 0, i64 1
  %16 = load float, ptr %15, align 4
  %17 = load ptr, ptr %5, align 8
  %18 = call noundef float @_ZNK3gmx11BasicVectorIfEixEi(ptr noundef nonnull align 4 dereferenceable(12) %17, i32 noundef 1)
  %19 = fadd float %16, %18
  %20 = getelementptr inbounds %"class.gmx::BasicVector", ptr %7, i32 0, i32 0
  %21 = getelementptr inbounds [3 x float], ptr %20, i64 0, i64 2
  %22 = load float, ptr %21, align 4
  %23 = load ptr, ptr %5, align 8
  %24 = call noundef float @_ZNK3gmx11BasicVectorIfEixEi(ptr noundef nonnull align 4 dereferenceable(12) %23, i32 noundef 2)
  %25 = fadd float %22, %24
  call void @_ZN3gmx11BasicVectorIfEC2Efff(ptr noundef nonnull align 4 dereferenceable(12) %3, float noundef %13, float noundef %19, float noundef %25)
  %26 = getelementptr inbounds %"class.gmx::BasicVector", ptr %3, i32 0, i32 0
  call void @llvm.memcpy.p0.p0.i64(ptr align 8 %6, ptr align 4 %26, i64 12, i1 false)
  %27 = load { <2 x float>, float }, ptr %6, align 8
  ret { <2 x float>, float } %27
}

; Function Attrs: mustprogress uwtable
define linkonce_odr { <2 x float>, float } @_ZN3gmxmlIfEENS_11BasicVectorIT_EERKS2_RKS3_(ptr noundef nonnull align 4 dereferenceable(4) %0, ptr noundef nonnull align 4 dereferenceable(12) %1) #2 comdat {
  %3 = alloca %"class.gmx::BasicVector", align 4
  %4 = alloca ptr, align 8
  %5 = alloca ptr, align 8
  %6 = alloca { <2 x float>, float }, align 8
  store ptr %0, ptr %4, align 8
  store ptr %1, ptr %5, align 8
  %7 = load ptr, ptr %4, align 8
  %8 = load float, ptr %7, align 4
  %9 = load ptr, ptr %5, align 8
  %10 = call noundef float @_ZNK3gmx11BasicVectorIfEixEi(ptr noundef nonnull align 4 dereferenceable(12) %9, i32 noundef 0)
  %11 = fmul float %8, %10
  %12 = load ptr, ptr %4, align 8
  %13 = load float, ptr %12, align 4
  %14 = load ptr, ptr %5, align 8
  %15 = call noundef float @_ZNK3gmx11BasicVectorIfEixEi(ptr noundef nonnull align 4 dereferenceable(12) %14, i32 noundef 1)
  %16 = fmul float %13, %15
  %17 = load ptr, ptr %4, align 8
  %18 = load float, ptr %17, align 4
  %19 = load ptr, ptr %5, align 8
  %20 = call noundef float @_ZNK3gmx11BasicVectorIfEixEi(ptr noundef nonnull align 4 dereferenceable(12) %19, i32 noundef 2)
  %21 = fmul float %18, %20
  call void @_ZN3gmx11BasicVectorIfEC2Efff(ptr noundef nonnull align 4 dereferenceable(12) %3, float noundef %11, float noundef %16, float noundef %21)
  %22 = getelementptr inbounds %"class.gmx::BasicVector", ptr %3, i32 0, i32 0
  call void @llvm.memcpy.p0.p0.i64(ptr align 8 %6, ptr align 4 %22, i64 12, i1 false)
  %23 = load { <2 x float>, float }, ptr %6, align 8
  ret { <2 x float>, float } %23
}

; Function Attrs: mustprogress uwtable
define linkonce_odr noundef nonnull align 4 dereferenceable(12) ptr @_ZN3gmx11BasicVectorIfEpLERKS1_(ptr noundef nonnull align 4 dereferenceable(12) %0, ptr noundef nonnull align 4 dereferenceable(12) %1) #8 comdat align 2 {
  %3 = alloca ptr, align 8
  %4 = alloca ptr, align 8
  %5 = alloca %"class.gmx::BasicVector", align 4
  %6 = alloca { <2 x float>, float }, align 8
  store ptr %0, ptr %3, align 8
  store ptr %1, ptr %4, align 8
  %7 = load ptr, ptr %3, align 8
  %8 = load ptr, ptr %4, align 8
  %9 = call { <2 x float>, float } @_ZNK3gmx11BasicVectorIfEplERKS1_(ptr noundef nonnull align 4 dereferenceable(12) %7, ptr noundef nonnull align 4 dereferenceable(12) %8)
  %10 = getelementptr inbounds %"class.gmx::BasicVector", ptr %5, i32 0, i32 0
  store { <2 x float>, float } %9, ptr %6, align 8
  call void @llvm.memcpy.p0.p0.i64(ptr align 4 %10, ptr align 8 %6, i64 12, i1 false)
  call void @llvm.memcpy.p0.p0.i64(ptr align 4 %7, ptr align 4 %5, i64 12, i1 false)
  ret ptr %7
}

; Function Attrs: mustprogress nounwind uwtable
define linkonce_odr noundef nonnull align 4 dereferenceable(12) ptr @_ZNK3gmx8ArrayRefINS_11BasicVectorIfEEEixEm(ptr noundef nonnull align 8 dereferenceable(16) %0, i64 noundef %1) #3 comdat align 2 {
  %3 = alloca ptr, align 8
  %4 = alloca i64, align 8
  store ptr %0, ptr %3, align 8
  store i64 %1, ptr %4, align 8
  %5 = load ptr, ptr %3, align 8
  %6 = getelementptr inbounds %"class.gmx::ArrayRef", ptr %5, i32 0, i32 0
  %7 = load i64, ptr %4, align 8
  %8 = call noundef nonnull align 4 dereferenceable(12) ptr @_ZNK3gmx5boost14stl_interfaces2v118iterator_interfaceINS_12ArrayRefIterINS_11BasicVectorIfEEEESt26random_access_iterator_tagS6_RS6_PS6_lvEixIS7_EEDTcmpLclsr3stdE7declvalIRT_EEfp_declsr3stdE7declvalISE_EEEl(ptr noundef nonnull align 1 dereferenceable(1) %6, i64 noundef %7) #4
  ret ptr %8
}

; Function Attrs: norecurse nounwind uwtable
define internal void @_ZL16combineMtsForcesiN3gmx8ArrayRefINS_11BasicVectorIfEEEES3_f.omp_outlined(ptr noalias noundef %0, ptr noalias noundef %1, ptr noundef nonnull align 4 dereferenceable(4) %2, ptr noundef nonnull align 8 dereferenceable(16) %3, ptr noundef nonnull align 8 dereferenceable(16) %4, ptr noundef nonnull align 4 dereferenceable(4) %5) #16 personality ptr @__gxx_personality_v0 {
  %7 = alloca ptr, align 8
  %8 = alloca ptr, align 8
  %9 = alloca ptr, align 8
  %10 = alloca ptr, align 8
  %11 = alloca ptr, align 8
  %12 = alloca ptr, align 8
  %13 = alloca i32, align 4
  %14 = alloca i32, align 4
  %15 = alloca i32, align 4
  %16 = alloca i32, align 4
  %17 = alloca i32, align 4
  %18 = alloca i32, align 4
  %19 = alloca i32, align 4
  %20 = alloca i32, align 4
  %21 = alloca i32, align 4
  %22 = alloca %"class.gmx::BasicVector", align 4
  %23 = alloca %"class.gmx::BasicVector", align 4
  %24 = alloca %"class.gmx::BasicVector", align 4
  %25 = alloca { <2 x float>, float }, align 8
  %26 = alloca { <2 x float>, float }, align 8
  store ptr %0, ptr %7, align 8
  store ptr %1, ptr %8, align 8
  store ptr %2, ptr %9, align 8
  store ptr %3, ptr %10, align 8
  store ptr %4, ptr %11, align 8
  store ptr %5, ptr %12, align 8
  %27 = load ptr, ptr %9, align 8
  %28 = load ptr, ptr %10, align 8
  %29 = load ptr, ptr %11, align 8
  %30 = load ptr, ptr %12, align 8
  %31 = load i32, ptr %27, align 4
  store i32 %31, ptr %14, align 4
  %32 = load i32, ptr %14, align 4
  %33 = sub nsw i32 %32, 0
  %34 = sdiv i32 %33, 1
  %35 = sub nsw i32 %34, 1
  store i32 %35, ptr %15, align 4
  store i32 0, ptr %16, align 4
  %36 = load i32, ptr %14, align 4
  %37 = icmp slt i32 0, %36
  br i1 %37, label %38, label %91

38:                                               ; preds = %6
  store i32 0, ptr %17, align 4
  %39 = load i32, ptr %15, align 4
  store i32 %39, ptr %18, align 4
  store i32 1, ptr %19, align 4
  store i32 0, ptr %20, align 4
  %40 = load ptr, ptr %7, align 8
  %41 = load i32, ptr %40, align 4
  call void @__kmpc_for_static_init_4(ptr @1, i32 %41, i32 34, ptr %20, ptr %17, ptr %18, ptr %19, i32 1, i32 1)
  %42 = load i32, ptr %18, align 4
  %43 = load i32, ptr %15, align 4
  %44 = icmp sgt i32 %42, %43
  br i1 %44, label %45, label %47

45:                                               ; preds = %38
  %46 = load i32, ptr %15, align 4
  br label %49

47:                                               ; preds = %38
  %48 = load i32, ptr %18, align 4
  br label %49

49:                                               ; preds = %47, %45
  %50 = phi i32 [ %46, %45 ], [ %48, %47 ]
  store i32 %50, ptr %18, align 4
  %51 = load i32, ptr %17, align 4
  store i32 %51, ptr %13, align 4
  br label %52

52:                                               ; preds = %84, %49
  %53 = load i32, ptr %13, align 4
  %54 = load i32, ptr %18, align 4
  %55 = icmp sle i32 %53, %54
  br i1 %55, label %56, label %87

56:                                               ; preds = %52
  %57 = load i32, ptr %13, align 4
  %58 = mul nsw i32 %57, 1
  %59 = add nsw i32 0, %58
  store i32 %59, ptr %21, align 4
  %60 = load i32, ptr %21, align 4
  %61 = sext i32 %60 to i64
  %62 = call noundef nonnull align 4 dereferenceable(12) ptr @_ZNK3gmx8ArrayRefINS_11BasicVectorIfEEEixEm(ptr noundef nonnull align 8 dereferenceable(16) %28, i64 noundef %61)
  call void @llvm.memcpy.p0.p0.i64(ptr align 4 %22, ptr align 4 %62, i64 12, i1 false)
  %63 = load i32, ptr %21, align 4
  %64 = sext i32 %63 to i64
  %65 = call noundef nonnull align 4 dereferenceable(12) ptr @_ZNK3gmx8ArrayRefINS_11BasicVectorIfEEEixEm(ptr noundef nonnull align 8 dereferenceable(16) %29, i64 noundef %64)
  %66 = load i32, ptr %21, align 4
  %67 = sext i32 %66 to i64
  %68 = call noundef nonnull align 4 dereferenceable(12) ptr @_ZNK3gmx8ArrayRefINS_11BasicVectorIfEEEixEm(ptr noundef nonnull align 8 dereferenceable(16) %28, i64 noundef %67)
  %69 = invoke noundef nonnull align 4 dereferenceable(12) ptr @_ZN3gmx11BasicVectorIfEpLERKS1_(ptr noundef nonnull align 4 dereferenceable(12) %68, ptr noundef nonnull align 4 dereferenceable(12) %65)
          to label %70 unwind label %92

70:                                               ; preds = %56
  %71 = load i32, ptr %21, align 4
  %72 = sext i32 %71 to i64
  %73 = call noundef nonnull align 4 dereferenceable(12) ptr @_ZNK3gmx8ArrayRefINS_11BasicVectorIfEEEixEm(ptr noundef nonnull align 8 dereferenceable(16) %29, i64 noundef %72)
  %74 = invoke { <2 x float>, float } @_ZN3gmxmlIfEENS_11BasicVectorIT_EERKS2_RKS3_(ptr noundef nonnull align 4 dereferenceable(4) %30, ptr noundef nonnull align 4 dereferenceable(12) %73)
          to label %75 unwind label %92

75:                                               ; preds = %70
  %76 = getelementptr inbounds %"class.gmx::BasicVector", ptr %24, i32 0, i32 0
  store { <2 x float>, float } %74, ptr %25, align 8
  call void @llvm.memcpy.p0.p0.i64(ptr align 4 %76, ptr align 8 %25, i64 12, i1 false)
  %77 = invoke { <2 x float>, float } @_ZNK3gmx11BasicVectorIfEplERKS1_(ptr noundef nonnull align 4 dereferenceable(12) %22, ptr noundef nonnull align 4 dereferenceable(12) %24)
          to label %78 unwind label %92

78:                                               ; preds = %75
  %79 = getelementptr inbounds %"class.gmx::BasicVector", ptr %23, i32 0, i32 0
  store { <2 x float>, float } %77, ptr %26, align 8
  call void @llvm.memcpy.p0.p0.i64(ptr align 4 %79, ptr align 8 %26, i64 12, i1 false)
  %80 = load i32, ptr %21, align 4
  %81 = sext i32 %80 to i64
  %82 = call noundef nonnull align 4 dereferenceable(12) ptr @_ZNK3gmx8ArrayRefINS_11BasicVectorIfEEEixEm(ptr noundef nonnull align 8 dereferenceable(16) %29, i64 noundef %81)
  call void @llvm.memcpy.p0.p0.i64(ptr align 4 %82, ptr align 4 %23, i64 12, i1 false)
  br label %83

83:                                               ; preds = %78
  br label %84

84:                                               ; preds = %83
  %85 = load i32, ptr %13, align 4
  %86 = add nsw i32 %85, 1
  store i32 %86, ptr %13, align 4
  br label %52

87:                                               ; preds = %52
  br label %88

88:                                               ; preds = %87
  %89 = load ptr, ptr %7, align 8
  %90 = load i32, ptr %89, align 4
  call void @__kmpc_for_static_fini(ptr @1, i32 %90)
  br label %91

91:                                               ; preds = %88, %6
  ret void

92:                                               ; preds = %75, %70, %56
  %93 = landingpad { ptr, i32 }
          catch ptr null
  %94 = extractvalue { ptr, i32 } %93, 0
  call void @__clang_call_terminate(ptr %94) #19
  unreachable
}