; Function Attrs: norecurse nounwind uwtable
define internal void @_ZL16combineMtsForcesiN3gmx8ArrayRefINS_11BasicVectorIfEEEES3_f.omp_outlined(ptr noalias nocapture noundef readonly %0, ptr noalias nocapture readnone %1, ptr nocapture noundef nonnull readonly align 4 dereferenceable(4) %2, ptr nocapture noundef nonnull readonly align 8 dereferenceable(16) %3, ptr nocapture noundef nonnull readonly align 8 dereferenceable(16) %4, ptr nocapture noundef nonnull readonly align 4 dereferenceable(4) %5) #17 personality ptr @__gxx_personality_v0 {
  %7 = alloca i32, align 4
  %8 = alloca i32, align 4
  %9 = alloca i32, align 4
  %10 = alloca i32, align 4
  %11 = load i32, ptr %2, align 4
  %12 = icmp sgt i32 %11, 0
  br i1 %12, label %13, label %47

13:                                               ; preds = %6
  %14 = add nsw i32 %11, -1
  store i32 0, ptr %7, align 4
  store i32 %14, ptr %8, align 4
  store i32 1, ptr %9, align 4
  store i32 0, ptr %10, align 4
  %15 = load i32, ptr %0, align 4
  call void @__kmpc_for_static_init_4(ptr nonnull @1, i32 %15, i32 34, ptr nonnull %10, ptr nonnull %7, ptr nonnull %8, ptr nonnull %9, i32 1, i32 1)
  %16 = load i32, ptr %8, align 4
  %17 = call i32 @llvm.smin.i32(i32 %16, i32 %14)
  store i32 %17, ptr %8, align 4
  %18 = load i32, ptr %7, align 4
  %.not30 = icmp sgt i32 %18, %17
  br i1 %.not30, label %._crit_edge, label %.lr.ph.preheader

.lr.ph.preheader:                                 ; preds = %13
  %19 = sext i32 %18 to i64
  br label %.lr.ph

.lr.ph:                                           ; preds = %.lr.ph.preheader, %.lr.ph
  %indvars.iv = phi i64 [ %19, %.lr.ph.preheader ], [ %indvars.iv.next, %.lr.ph ]
  %20 = load i64, ptr %3, align 8
  %21 = inttoptr i64 %20 to ptr
  %22 = getelementptr inbounds %"class.gmx::BasicVector", ptr %21, i64 %indvars.iv
  %.sroa.329.0..sroa_idx = getelementptr inbounds i8, ptr %22, i64 8
  %.sroa.329.0.copyload = load float, ptr %.sroa.329.0..sroa_idx, align 4
  %23 = load i64, ptr %4, align 8
  %24 = inttoptr i64 %23 to ptr
  %25 = getelementptr inbounds %"class.gmx::BasicVector", ptr %24, i64 %indvars.iv
  %26 = load <2 x float>, ptr %22, align 4
  %27 = load <2 x float>, ptr %25, align 4
  %28 = fadd <2 x float> %26, %27
  %29 = getelementptr inbounds i8, ptr %25, i64 8
  %30 = load float, ptr %29, align 4
  %31 = fadd float %.sroa.329.0.copyload, %30
  store <2 x float> %28, ptr %22, align 4
  store float %31, ptr %.sroa.329.0..sroa_idx, align 4
  %32 = load i64, ptr %4, align 8
  %33 = inttoptr i64 %32 to ptr
  %34 = getelementptr inbounds %"class.gmx::BasicVector", ptr %33, i64 %indvars.iv
  %35 = load float, ptr %5, align 4
  %36 = getelementptr inbounds i8, ptr %34, i64 8
  %37 = load float, ptr %36, align 4
  %38 = fmul float %35, %37
  %39 = load <2 x float>, ptr %34, align 4
  %40 = insertelement <2 x float> poison, float %35, i64 0
  %41 = shufflevector <2 x float> %40, <2 x float> poison, <2 x i32> zeroinitializer
  %42 = fmul <2 x float> %41, %39
  %43 = fadd <2 x float> %26, %42
  %44 = fadd float %.sroa.329.0.copyload, %38
  store <2 x float> %43, ptr %34, align 4
  store float %44, ptr %36, align 4
  %indvars.iv.next = add nsw i64 %indvars.iv, 1
  %45 = load i32, ptr %8, align 4
  %46 = sext i32 %45 to i64
  %.not.not = icmp slt i64 %indvars.iv, %46
  br i1 %.not.not, label %.lr.ph, label %._crit_edge

._crit_edge:                                      ; preds = %.lr.ph, %13
  call void @__kmpc_for_static_fini(ptr nonnull @1, i32 %15)
  br label %47

47:                                               ; preds = %._crit_edge, %6
  ret void
}